; Function Attrs: null_pointer_is_valid sspstrong uwtable
define hidden noundef zeroext i1 @window_geom_load(ptr noundef %0, ptr noundef writeonly captures(none) %1) local_unnamed_addr #0 {
  %3 = load ptr, ptr @window_geom_hash, align 8
  %.not = icmp eq ptr %3, null
  br i1 %.not, label %4, label %6

4:                                                ; preds = %2
  %5 = tail call ptr @g_hash_table_new_full(ptr noundef nonnull @g_str_hash, ptr noundef nonnull @g_str_equal, ptr noundef null, ptr noundef nonnull @window_geom_free)
  store ptr %5, ptr @window_geom_hash, align 8
  br label %6

6:                                                ; preds = %4, %2
  %7 = phi ptr [ %5, %4 ], [ %3, %2 ]
  %8 = tail call ptr @g_hash_table_lookup(ptr noundef %7, ptr noundef %0)
  %.not6 = icmp ne ptr %8, null
  br i1 %.not6, label %9, label %10

9:                                                ; preds = %6
  tail call void @llvm.memcpy.p0.p0.i64(ptr noundef align 8 dereferenceable(48) %1, ptr noundef nonnull align 8 dereferenceable(48) %8, i64 48, i1 false)
  br label %10

10:                                               ; preds = %6, %9
  ret i1 %.not6
}